; Function Attrs: mustprogress uwtable
define void @_ZN6icu_778Collator11setStrengthENS0_18ECollationStrengthE(ptr noundef nonnull align 8 dereferenceable(8) %0, i32 noundef %1) unnamed_addr #5 align 2 {
  %3 = alloca i32, align 4
  call void @llvm.lifetime.start.p0(i64 4, ptr nonnull %3) #16
  store i32 0, ptr %3, align 4, !tbaa !6
  %4 = load ptr, ptr %0, align 8, !tbaa !3
  %5 = getelementptr inbounds nuw i8, ptr %4, i64 184
  %6 = load ptr, ptr %5, align 8
  call void %6(ptr noundef nonnull align 8 dereferenceable(8) %0, i32 noundef 5, i32 noundef %1, ptr noundef nonnull align 4 dereferenceable(4) %3)
  call void @llvm.lifetime.end.p0(i64 4, ptr nonnull %3) #16
  ret void
}